; Function Attrs: mustprogress uwtable
define void @_ZN6icu_777PtnElemC2ERKNS_13UnicodeStringES3_(ptr noundef nonnull align 8 dereferenceable(160) initializes((0, 8)) %0, ptr noundef nonnull align 8 dereferenceable(64) %1, ptr noundef nonnull align 8 dereferenceable(64) %2) unnamed_addr #1 align 2 personality ptr @__gxx_personality_v0 {
  store ptr getelementptr inbounds nuw inrange(-16, 16) (i8, ptr @_ZTVN6icu_777PtnElemE, i64 16), ptr %0, align 8, !tbaa !15
  %4 = getelementptr inbounds nuw i8, ptr %0, i64 8
  tail call void @_ZN6icu_7713UnicodeStringC1ERKS0_(ptr noundef nonnull align 8 dereferenceable(64) %4, ptr noundef nonnull align 8 dereferenceable(64) %1)
  %5 = getelementptr inbounds nuw i8, ptr %0, i64 72
  store ptr null, ptr %5, align 8, !tbaa !55
  %6 = getelementptr inbounds nuw i8, ptr %0, i64 80
  invoke void @_ZN6icu_7713UnicodeStringC1ERKS0_(ptr noundef nonnull align 8 dereferenceable(64) %6, ptr noundef nonnull align 8 dereferenceable(64) %2)
          to label %7 unwind label %9

7:                                                ; preds = %3
  %8 = getelementptr inbounds nuw i8, ptr %0, i64 152
  store ptr null, ptr %8, align 8, !tbaa !63
  ret void

9:                                                ; preds = %3
  %10 = landingpad { ptr, i32 }
          cleanup
  %11 = load ptr, ptr %5, align 8, !tbaa !55
  %12 = icmp eq ptr %11, null
  br i1 %12, label %_ZN6icu_7712LocalPointerINS_11PtnSkeletonEED2Ev.exit, label %13

13:                                               ; preds = %9
  %14 = load ptr, ptr %11, align 8, !tbaa !15
  %15 = getelementptr inbounds nuw i8, ptr %14, i64 8
  %16 = load ptr, ptr %15, align 8
  tail call void %16(ptr noundef nonnull align 8 dereferenceable(137) %11) #35
  br label %_ZN6icu_7712LocalPointerINS_11PtnSkeletonEED2Ev.exit

_ZN6icu_7712LocalPointerINS_11PtnSkeletonEED2Ev.exit: ; preds = %13, %9
  tail call void @_ZN6icu_7713UnicodeStringD1Ev(ptr noundef nonnull align 8 dereferenceable(64) %4) #35
  resume { ptr, i32 } %10
}